target datalayout = "e-m:e-p270:32:32-p271:32:32-p272:64:64-i64:64-i128:128-f80:128-n8:16:32:64-S128"
target triple = "x86_64-pc-linux-gnu"

%"class.cv::Range" = type { i32, i32 }

; Function Attrs: inlinehint mustprogress nounwind uwtable
define linkonce_odr noundef nonnull align 4 dereferenceable(4) ptr @_ZSt3minIiERKT_S2_S2_(ptr noundef nonnull align 4 dereferenceable(4) %0, ptr noundef nonnull align 4 dereferenceable(4) %1) #6 comdat {
  %3 = alloca ptr, align 8
  %4 = alloca ptr, align 8
  %5 = alloca ptr, align 8
  store ptr %0, ptr %4, align 8, !tbaa !14
  store ptr %1, ptr %5, align 8, !tbaa !14
  %6 = load ptr, ptr %5, align 8, !tbaa !14
  %7 = load i32, ptr %6, align 4, !tbaa !8
  %8 = load ptr, ptr %4, align 8, !tbaa !14
  %9 = load i32, ptr %8, align 4, !tbaa !8
  %10 = icmp slt i32 %7, %9
  br i1 %10, label %11, label %13

11:                                               ; preds = %2
  %12 = load ptr, ptr %5, align 8, !tbaa !14
  store ptr %12, ptr %3, align 8
  br label %15

13:                                               ; preds = %2
  %14 = load ptr, ptr %4, align 8, !tbaa !14
  store ptr %14, ptr %3, align 8
  br label %15

15:                                               ; preds = %13, %11
  %16 = load ptr, ptr %3, align 8
  ret ptr %16
}

; Function Attrs: inlinehint mustprogress nounwind uwtable
define linkonce_odr noundef nonnull align 4 dereferenceable(4) ptr @_ZSt3maxIiERKT_S2_S2_(ptr noundef nonnull align 4 dereferenceable(4) %0, ptr noundef nonnull align 4 dereferenceable(4) %1) #6 comdat {
  %3 = alloca ptr, align 8
  %4 = alloca ptr, align 8
  %5 = alloca ptr, align 8
  store ptr %0, ptr %4, align 8, !tbaa !14
  store ptr %1, ptr %5, align 8, !tbaa !14
  %6 = load ptr, ptr %4, align 8, !tbaa !14
  %7 = load i32, ptr %6, align 4, !tbaa !8
  %8 = load ptr, ptr %5, align 8, !tbaa !14
  %9 = load i32, ptr %8, align 4, !tbaa !8
  %10 = icmp slt i32 %7, %9
  br i1 %10, label %11, label %13

11:                                               ; preds = %2
  %12 = load ptr, ptr %5, align 8, !tbaa !14
  store ptr %12, ptr %3, align 8
  br label %15

13:                                               ; preds = %2
  %14 = load ptr, ptr %4, align 8, !tbaa !14
  store ptr %14, ptr %3, align 8
  br label %15

15:                                               ; preds = %13, %11
  %16 = load ptr, ptr %3, align 8
  ret ptr %16
}

; Function Attrs: mustprogress uwtable
define hidden i64 @_ZN2cv3dnn14normalizeRangeERKNS_5RangeEi(ptr noundef nonnull align 4 dereferenceable(8) %0, i32 noundef %1) #4 {
  %3 = alloca %"class.cv::Range", align 4
  %4 = alloca ptr, align 8
  %5 = alloca i32, align 4
  %6 = alloca i32, align 4
  %7 = alloca i32, align 4
  %8 = alloca i32, align 4
  store ptr %0, ptr %4, align 8, !tbaa !3
  store i32 %1, ptr %5, align 4, !tbaa !8
  %9 = load ptr, ptr %4, align 8, !tbaa !3
  call void @llvm.memcpy.p0.p0.i64(ptr align 4 %3, ptr align 4 %9, i64 8, i1 false), !tbaa.struct !10
  %10 = getelementptr inbounds nuw %"class.cv::Range", ptr %3, i32 0, i32 0
  %11 = load i32, ptr %10, align 4, !tbaa !11
  %12 = load i32, ptr %5, align 4, !tbaa !8
  %13 = icmp ne i32 %11, %12
  br i1 %13, label %14, label %33

14:                                               ; preds = %2
  %15 = getelementptr inbounds nuw %"class.cv::Range", ptr %3, i32 0, i32 0
  call void @llvm.lifetime.start.p0(i64 4, ptr %6) #3
  %16 = load i32, ptr %5, align 4, !tbaa !8
  %17 = sub nsw i32 0, %16
  store i32 %17, ptr %6, align 4, !tbaa !8
  %18 = call noundef nonnull align 4 dereferenceable(4) ptr @_ZSt3maxIiERKT_S2_S2_(ptr noundef nonnull align 4 dereferenceable(4) %15, ptr noundef nonnull align 4 dereferenceable(4) %6)
  call void @llvm.lifetime.start.p0(i64 4, ptr %7) #3
  %19 = load i32, ptr %5, align 4, !tbaa !8
  %20 = sub nsw i32 %19, 1
  store i32 %20, ptr %7, align 4, !tbaa !8
  %21 = call noundef nonnull align 4 dereferenceable(4) ptr @_ZSt3minIiERKT_S2_S2_(ptr noundef nonnull align 4 dereferenceable(4) %18, ptr noundef nonnull align 4 dereferenceable(4) %7)
  %22 = load i32, ptr %21, align 4, !tbaa !8
  %23 = getelementptr inbounds nuw %"class.cv::Range", ptr %3, i32 0, i32 0
  store i32 %22, ptr %23, align 4, !tbaa !11
  call void @llvm.lifetime.end.p0(i64 4, ptr %7) #3
  call void @llvm.lifetime.end.p0(i64 4, ptr %6) #3
  %24 = getelementptr inbounds nuw %"class.cv::Range", ptr %3, i32 0, i32 0
  %25 = load i32, ptr %24, align 4, !tbaa !11
  %26 = icmp slt i32 %25, 0
  br i1 %26, label %27, label %32

27:                                               ; preds = %14
  %28 = load i32, ptr %5, align 4, !tbaa !8
  %29 = getelementptr inbounds nuw %"class.cv::Range", ptr %3, i32 0, i32 0
  %30 = load i32, ptr %29, align 4, !tbaa !11
  %31 = add nsw i32 %30, %28
  store i32 %31, ptr %29, align 4, !tbaa !11
  br label %32

32:                                               ; preds = %27, %14
  br label %33

33:                                               ; preds = %32, %2
  %34 = getelementptr inbounds nuw %"class.cv::Range", ptr %3, i32 0, i32 1
  call void @llvm.lifetime.start.p0(i64 4, ptr %8) #3
  %35 = load i32, ptr %5, align 4, !tbaa !8
  %36 = sub nsw i32 0, %35
  store i32 %36, ptr %8, align 4, !tbaa !8
  %37 = call noundef nonnull align 4 dereferenceable(4) ptr @_ZSt3maxIiERKT_S2_S2_(ptr noundef nonnull align 4 dereferenceable(4) %34, ptr noundef nonnull align 4 dereferenceable(4) %8)
  %38 = call noundef nonnull align 4 dereferenceable(4) ptr @_ZSt3minIiERKT_S2_S2_(ptr noundef nonnull align 4 dereferenceable(4) %37, ptr noundef nonnull align 4 dereferenceable(4) %5)
  %39 = load i32, ptr %38, align 4, !tbaa !8
  %40 = getelementptr inbounds nuw %"class.cv::Range", ptr %3, i32 0, i32 1
  store i32 %39, ptr %40, align 4, !tbaa !13
  call void @llvm.lifetime.end.p0(i64 4, ptr %8) #3
  %41 = getelementptr inbounds nuw %"class.cv::Range", ptr %3, i32 0, i32 1
  %42 = load i32, ptr %41, align 4, !tbaa !13
  %43 = icmp slt i32 %42, 0
  br i1 %43, label %44, label %49

44:                                               ; preds = %33
  %45 = load i32, ptr %5, align 4, !tbaa !8
  %46 = getelementptr inbounds nuw %"class.cv::Range", ptr %3, i32 0, i32 1
  %47 = load i32, ptr %46, align 4, !tbaa !13
  %48 = add nsw i32 %47, %45
  store i32 %48, ptr %46, align 4, !tbaa !13
  br label %49

49:                                               ; preds = %44, %33
  %50 = load i64, ptr %3, align 4
  ret i64 %50
}