; Function Attrs: mustprogress nofree norecurse nosync nounwind willreturn memory(argmem: read) uwtable
define hidden i64 @_ZN2cv3dnn14normalizeRangeERKNS_5RangeEi(ptr noundef nonnull readonly align 4 captures(none) dereferenceable(8) %0, i32 noundef %1) local_unnamed_addr #3 {
  %3 = load i32, ptr %0, align 4
  %.sroa_idx = getelementptr inbounds nuw i8, ptr %0, i64 4
  %4 = load i32, ptr %.sroa_idx, align 4
  %.not = icmp eq i32 %3, %1
  %.pre = sub nsw i32 0, %1
  br i1 %.not, label %._crit_edge, label %5

5:                                                ; preds = %2
  %6 = add nsw i32 %1, -1
  %.sroa.speculated8 = tail call i32 @llvm.smax.i32(i32 %3, i32 %.pre)
  %.sroa.speculated = tail call i32 @llvm.smin.i32(i32 %6, i32 %.sroa.speculated8)
  %7 = icmp slt i32 %.sroa.speculated, 0
  %8 = select i1 %7, i32 %1, i32 0
  %spec.select = add nsw i32 %8, %.sroa.speculated
  br label %._crit_edge

._crit_edge:                                      ; preds = %2, %5
  %.sroa.0.0 = phi i32 [ %spec.select, %5 ], [ %1, %2 ]
  %.sroa.speculated31 = tail call i32 @llvm.smax.i32(i32 %4, i32 %.pre)
  %.sroa.speculated19 = tail call i32 @llvm.smin.i32(i32 %1, i32 %.sroa.speculated31)
  %9 = icmp slt i32 %.sroa.speculated19, 0
  %10 = select i1 %9, i32 %1, i32 0
  %spec.select35 = add nsw i32 %10, %.sroa.speculated19
  %.sroa.8.0.insert.ext = zext i32 %spec.select35 to i64
  %.sroa.8.0.insert.shift = shl nuw i64 %.sroa.8.0.insert.ext, 32
  %.sroa.0.0.insert.ext = zext i32 %.sroa.0.0 to i64
  %.sroa.0.0.insert.insert = or disjoint i64 %.sroa.8.0.insert.shift, %.sroa.0.0.insert.ext
  ret i64 %.sroa.0.0.insert.insert
}